target datalayout = "e-m:e-p270:32:32-p271:32:32-p272:64:64-i64:64-i128:128-f80:128-n8:16:32:64-S128"
target triple = "x86_64-pc-linux-gnu"

%"class.std::__shared_count" = type { ptr }
%"class.std::shared_ptr.16" = type { %"class.std::__shared_ptr.17" }
%"class.std::__shared_ptr.17" = type { ptr, %"class.std::__shared_count" }
%"class.std::__cxx11::basic_string" = type { %"struct.std::__cxx11::basic_string<char>::_Alloc_hider", i64, %union.anon }
%"struct.std::__cxx11::basic_string<char>::_Alloc_hider" = type { ptr }
%union.anon = type { i64, [8 x i8] }
%"class.llvm::SmallVectorBase" = type { ptr, i32, i32 }
%"class.llvm::StringMapImpl" = type { ptr, i32, i32, i32, i32 }
%"class.clang::FileID" = type { i32 }
%"struct.std::_Rb_tree_header" = type { %"struct.std::_Rb_tree_node_base", i64 }
%"struct.std::_Rb_tree_node_base" = type { i32, ptr, ptr, ptr }
%"class.clang::SourceLocation" = type { i32 }
%"class.llvm::FoldingSetBase" = type { ptr, i32, i32 }
%"class.llvm::BumpPtrAllocatorImpl" = type { ptr, ptr, %"class.llvm::SmallVector.419", %"class.llvm::SmallVector.424", i64, i64 }
%"class.llvm::SmallVector.419" = type { %"class.llvm::SmallVectorImpl.420", %"struct.llvm::SmallVectorStorage.423" }
%"class.llvm::SmallVectorImpl.420" = type { %"class.llvm::SmallVectorTemplateBase.421" }
%"class.llvm::SmallVectorTemplateBase.421" = type { %"class.llvm::SmallVectorTemplateCommon.422" }
%"class.llvm::SmallVectorTemplateCommon.422" = type { %"class.llvm::SmallVectorBase" }
%"struct.llvm::SmallVectorStorage.423" = type { [32 x i8] }
%"class.llvm::SmallVector.424" = type { %"class.llvm::SmallVectorImpl.425" }
%"class.llvm::SmallVectorImpl.425" = type { %"class.llvm::SmallVectorTemplateBase.426" }
%"class.llvm::SmallVectorTemplateBase.426" = type { %"class.llvm::SmallVectorTemplateCommon.427" }
%"class.llvm::SmallVectorTemplateCommon.427" = type { %"class.llvm::SmallVectorBase" }
%"class.clang::SourceRange" = type { %"class.clang::SourceLocation", %"class.clang::SourceLocation" }
%"class.llvm::DenseMap.878" = type <{ ptr, i32, i32, i32, [4 x i8] }>
%"class.clang::VisibleModuleSet" = type <{ %"class.std::vector.1119", i32, [4 x i8] }>
%"class.std::vector.1119" = type { %"struct.std::_Vector_base.1120" }
%"struct.std::_Vector_base.1120" = type { %"struct.std::_Vector_base<clang::SourceLocation, std::allocator<clang::SourceLocation>>::_Vector_impl" }
%"struct.std::_Vector_base<clang::SourceLocation, std::allocator<clang::SourceLocation>>::_Vector_impl" = type { %"struct.std::_Vector_base<clang::SourceLocation, std::allocator<clang::SourceLocation>>::_Vector_impl_data" }
%"struct.std::_Vector_base<clang::SourceLocation, std::allocator<clang::SourceLocation>>::_Vector_impl_data" = type { ptr, ptr, ptr }
%"class.llvm::SmallVectorImpl.1160" = type { %"class.llvm::SmallVectorTemplateBase.1161" }
%"class.llvm::SmallVectorTemplateBase.1161" = type { %"class.llvm::SmallVectorTemplateCommon.1162" }
%"class.llvm::SmallVectorTemplateCommon.1162" = type { %"class.llvm::SmallVectorBase" }
%"class.llvm::DenseSet.1164" = type { %"class.llvm::detail::DenseSetImpl.1165" }
%"class.llvm::detail::DenseSetImpl.1165" = type { %"class.llvm::DenseMap.1166" }
%"class.llvm::DenseMap.1166" = type <{ ptr, i32, i32, i32, [4 x i8] }>
%"class.(anonymous namespace)::FilterAndStoreDiagnosticConsumer" = type { %"class.clang::DiagnosticConsumer", ptr, ptr, i8, ptr, ptr }
%"class.clang::DiagnosticConsumer" = type { ptr, i32, i32 }
%"class.clang::Preprocessor" = type { %"class.llvm::unique_function", %"class.std::shared_ptr.16", ptr, ptr, ptr, ptr, ptr, ptr, %"class.std::unique_ptr.1649", ptr, ptr, ptr, %"class.llvm::BumpPtrAllocatorImpl", ptr, ptr, ptr, ptr, ptr, ptr, ptr, ptr, ptr, ptr, ptr, ptr, ptr, ptr, ptr, ptr, ptr, ptr, ptr, ptr, ptr, ptr, ptr, ptr, ptr, ptr, ptr, ptr, ptr, ptr, ptr, ptr, ptr, ptr, ptr, ptr, ptr, %"class.clang::SourceLocation", %"class.clang::SourceLocation", i32, %"class.clang::SourceLocation", i32, i32, i16, i8, i8, %"class.clang::IdentifierTable", %"class.clang::SelectorTable", %"class.std::unique_ptr.1658", %"class.std::unique_ptr.1666", %"class.std::unique_ptr.1666", %"class.std::vector.1674", ptr, i8, i32, ptr, ptr, i32, %"class.clang::SourceLocation", %"class.clang::SourceLocation", %"class.clang::SourceLocation", %"class.llvm::SmallVector.1679", %"class.llvm::DenseMap.1684", i32, i8, i8, [2 x i8], %"class.clang::Preprocessor::StdCXXImportSeq", %"class.clang::Preprocessor::TrackGMF", %"class.clang::Preprocessor::ModuleDeclSeq", i8, [7 x i8], %"struct.std::pair.1687", %"class.clang::SourceLocation", %"class.clang::SourceLocation", i8, ptr, %"class.clang::SourceRange", %"class.clang::CustomizableOptional.1600", %"struct.std::pair.1690", i8, i32, i32, i8, i32, %"class.clang::SourceLocation", %"class.clang::Preprocessor::PreambleConditionalStackStore", %"class.std::unique_ptr.1706", ptr, %"struct.clang::detail::SearchDirIteratorImpl", %"class.std::unique_ptr.1714", ptr, ptr, %"class.std::vector.1722", %"class.std::unique_ptr.1727", %"class.llvm::SmallVector.1735", %"class.llvm::SmallVector.1740", %"class.std::map.1745", %"struct.clang::Preprocessor::SubmoduleState", ptr, %"class.llvm::DenseSet.1754", %"class.llvm::SmallSetVector.1759", %"class.llvm::FoldingSet.1761", %"class.llvm::SmallVector.1763", %"class.llvm::DenseMap.1768", %"class.llvm::SmallDenseSet", %"class.llvm::DenseMap.1774", ptr, %"class.llvm::DenseMap.1777", i32, i32, i32, i32, i32, i32, i32, i32, i32, i32, i32, i32, i32, i32, i32, i32, %"class.std::__cxx11::basic_string", %"class.clang::FileID", %"class.clang::FileID", i8, i8, i32, [8 x %"class.std::unique_ptr.1714"], %"class.llvm::SmallVector.1780", %"class.std::vector.1785", ptr, %"class.llvm::SmallVector.1790", i64, %"class.std::vector.1792", %"class.std::vector.1794", i8, [7 x i8], %"class.llvm::DenseMap.1799", %"class.llvm::DenseMap.878", ptr, ptr, ptr, ptr, ptr, ptr, ptr, ptr, ptr, i8, %"class.clang::SourceLocation", %"class.llvm::SmallVector.1802", %struct.anon.1807 }
%"class.llvm::unique_function" = type { %"class.llvm::detail::UniqueFunctionBase" }
%"class.llvm::detail::UniqueFunctionBase" = type { %"union.llvm::detail::UniqueFunctionBase<void, const clang::Token &>::StorageUnionT", %"class.llvm::PointerIntPair.1647" }
%"union.llvm::detail::UniqueFunctionBase<void, const clang::Token &>::StorageUnionT" = type { %"struct.llvm::detail::UniqueFunctionBase<void, const clang::Token &>::StorageUnionT::OutOfLineStorageT" }
%"struct.llvm::detail::UniqueFunctionBase<void, const clang::Token &>::StorageUnionT::OutOfLineStorageT" = type { ptr, i64, i64 }
%"class.llvm::PointerIntPair.1647" = type { %"struct.llvm::detail::PunnedPointer.1648" }
%"struct.llvm::detail::PunnedPointer.1648" = type { [8 x i8] }
%"class.std::unique_ptr.1649" = type { %"struct.std::__uniq_ptr_data.1650" }
%"struct.std::__uniq_ptr_data.1650" = type { %"class.std::__uniq_ptr_impl.1651" }
%"class.std::__uniq_ptr_impl.1651" = type { %"class.std::tuple.1652" }
%"class.std::tuple.1652" = type { %"struct.std::_Tuple_impl.1653" }
%"struct.std::_Tuple_impl.1653" = type { %"struct.std::_Head_base.1656" }
%"struct.std::_Head_base.1656" = type { ptr }
%"class.clang::IdentifierTable" = type { %"class.llvm::StringMap.1657", ptr }
%"class.llvm::StringMap.1657" = type { %"class.llvm::StringMapImpl", %"class.llvm::detail::AllocatorHolder.1424" }
%"class.llvm::detail::AllocatorHolder.1424" = type { %"class.llvm::BumpPtrAllocatorImpl" }
%"class.clang::SelectorTable" = type { ptr }
%"class.std::unique_ptr.1658" = type { %"struct.std::__uniq_ptr_data.1659" }
%"struct.std::__uniq_ptr_data.1659" = type { %"class.std::__uniq_ptr_impl.1660" }
%"class.std::__uniq_ptr_impl.1660" = type { %"class.std::tuple.1661" }
%"class.std::tuple.1661" = type { %"struct.std::_Tuple_impl.1662" }
%"struct.std::_Tuple_impl.1662" = type { %"struct.std::_Head_base.1665" }
%"struct.std::_Head_base.1665" = type { ptr }
%"class.std::unique_ptr.1666" = type { %"struct.std::__uniq_ptr_data.1667" }
%"struct.std::__uniq_ptr_data.1667" = type { %"class.std::__uniq_ptr_impl.1668" }
%"class.std::__uniq_ptr_impl.1668" = type { %"class.std::tuple.1669" }
%"class.std::tuple.1669" = type { %"struct.std::_Tuple_impl.1670" }
%"struct.std::_Tuple_impl.1670" = type { %"struct.std::_Head_base.1673" }
%"struct.std::_Head_base.1673" = type { ptr }
%"class.std::vector.1674" = type { %"struct.std::_Vector_base.1675" }
%"struct.std::_Vector_base.1675" = type { %"struct.std::_Vector_base<clang::CommentHandler *, std::allocator<clang::CommentHandler *>>::_Vector_impl" }
%"struct.std::_Vector_base<clang::CommentHandler *, std::allocator<clang::CommentHandler *>>::_Vector_impl" = type { %"struct.std::_Vector_base<clang::CommentHandler *, std::allocator<clang::CommentHandler *>>::_Vector_impl_data" }
%"struct.std::_Vector_base<clang::CommentHandler *, std::allocator<clang::CommentHandler *>>::_Vector_impl_data" = type { ptr, ptr, ptr }
%"class.llvm::SmallVector.1679" = type { %"class.llvm::SmallVectorImpl.1680", %"struct.llvm::SmallVectorStorage.1683" }
%"class.llvm::SmallVectorImpl.1680" = type { %"class.llvm::SmallVectorTemplateBase.1681" }
%"class.llvm::SmallVectorTemplateBase.1681" = type { %"class.llvm::SmallVectorTemplateCommon.1682" }
%"class.llvm::SmallVectorTemplateCommon.1682" = type { %"class.llvm::SmallVectorBase" }
%"struct.llvm::SmallVectorStorage.1683" = type { [32 x i8] }
%"class.llvm::DenseMap.1684" = type <{ ptr, i32, i32, i32, [4 x i8] }>
%"class.clang::Preprocessor::StdCXXImportSeq" = type <{ i32, i8, [3 x i8] }>
%"class.clang::Preprocessor::TrackGMF" = type { i32 }
%"class.clang::Preprocessor::ModuleDeclSeq" = type { i32, %"class.std::__cxx11::basic_string" }
%"struct.std::pair.1687" = type <{ ptr, %"class.clang::SourceLocation", [4 x i8] }>
%"class.clang::CustomizableOptional.1600" = type { %"class.clang::optional_detail::OptionalStorage.1601" }
%"class.clang::optional_detail::OptionalStorage.1601" = type { %"class.clang::FileMgr::MapEntryOptionalStorage.1602" }
%"class.clang::FileMgr::MapEntryOptionalStorage.1602" = type { %"class.clang::DirectoryEntryRef" }
%"class.clang::DirectoryEntryRef" = type { ptr }
%"struct.std::pair.1690" = type <{ i32, i8, [3 x i8] }>
%"class.clang::Preprocessor::PreambleConditionalStackStore" = type <{ %"class.std::optional.1693", [4 x i8], %"class.llvm::SmallVector.1701", i32, [4 x i8] }>
%"class.std::optional.1693" = type { %"struct.std::_Optional_base.1694" }
%"struct.std::_Optional_base.1694" = type { %"struct.std::_Optional_payload.1696" }
%"struct.std::_Optional_payload.1696" = type { %"struct.std::_Optional_payload_base.base.1698", [3 x i8] }
%"struct.std::_Optional_payload_base.base.1698" = type <{ %"union.std::_Optional_payload_base<clang::Preprocessor::PreambleSkipInfo>::_Storage", i8 }>
%"union.std::_Optional_payload_base<clang::Preprocessor::PreambleSkipInfo>::_Storage" = type { %"struct.clang::Preprocessor::PreambleSkipInfo" }
%"struct.clang::Preprocessor::PreambleSkipInfo" = type { %"class.clang::SourceLocation", %"class.clang::SourceLocation", i8, i8, %"class.clang::SourceLocation" }
%"class.llvm::SmallVector.1701" = type { %"class.llvm::SmallVectorImpl.1702", %"struct.llvm::SmallVectorStorage.1705" }
%"class.llvm::SmallVectorImpl.1702" = type { %"class.llvm::SmallVectorTemplateBase.1703" }
%"class.llvm::SmallVectorTemplateBase.1703" = type { %"class.llvm::SmallVectorTemplateCommon.1704" }
%"class.llvm::SmallVectorTemplateCommon.1704" = type { %"class.llvm::SmallVectorBase" }
%"struct.llvm::SmallVectorStorage.1705" = type { [32 x i8] }
%"class.std::unique_ptr.1706" = type { %"struct.std::__uniq_ptr_data.1707" }
%"struct.std::__uniq_ptr_data.1707" = type { %"class.std::__uniq_ptr_impl.1708" }
%"class.std::__uniq_ptr_impl.1708" = type { %"class.std::tuple.1709" }
%"class.std::tuple.1709" = type { %"struct.std::_Tuple_impl.1710" }
%"struct.std::_Tuple_impl.1710" = type { %"struct.std::_Head_base.1713" }
%"struct.std::_Head_base.1713" = type { ptr }
%"struct.clang::detail::SearchDirIteratorImpl" = type { ptr, i64 }
%"class.std::unique_ptr.1714" = type { %"struct.std::__uniq_ptr_data.1715" }
%"struct.std::__uniq_ptr_data.1715" = type { %"class.std::__uniq_ptr_impl.1716" }
%"class.std::__uniq_ptr_impl.1716" = type { %"class.std::tuple.1717" }
%"class.std::tuple.1717" = type { %"struct.std::_Tuple_impl.1718" }
%"struct.std::_Tuple_impl.1718" = type { %"struct.std::_Head_base.1721" }
%"struct.std::_Head_base.1721" = type { ptr }
%"class.std::vector.1722" = type { %"struct.std::_Vector_base.1723" }
%"struct.std::_Vector_base.1723" = type { %"struct.std::_Vector_base<clang::Preprocessor::IncludeStackInfo, std::allocator<clang::Preprocessor::IncludeStackInfo>>::_Vector_impl" }
%"struct.std::_Vector_base<clang::Preprocessor::IncludeStackInfo, std::allocator<clang::Preprocessor::IncludeStackInfo>>::_Vector_impl" = type { %"struct.std::_Vector_base<clang::Preprocessor::IncludeStackInfo, std::allocator<clang::Preprocessor::IncludeStackInfo>>::_Vector_impl_data" }
%"struct.std::_Vector_base<clang::Preprocessor::IncludeStackInfo, std::allocator<clang::Preprocessor::IncludeStackInfo>>::_Vector_impl_data" = type { ptr, ptr, ptr }
%"class.std::unique_ptr.1727" = type { %"struct.std::__uniq_ptr_data.1728" }
%"struct.std::__uniq_ptr_data.1728" = type { %"class.std::__uniq_ptr_impl.1729" }
%"class.std::__uniq_ptr_impl.1729" = type { %"class.std::tuple.1730" }
%"class.std::tuple.1730" = type { %"struct.std::_Tuple_impl.1731" }
%"struct.std::_Tuple_impl.1731" = type { %"struct.std::_Head_base.1734" }
%"struct.std::_Head_base.1734" = type { ptr }
%"class.llvm::SmallVector.1735" = type { %"class.llvm::SmallVectorImpl.1736", %"struct.llvm::SmallVectorStorage.1739" }
%"class.llvm::SmallVectorImpl.1736" = type { %"class.llvm::SmallVectorTemplateBase.1737" }
%"class.llvm::SmallVectorTemplateBase.1737" = type { %"class.llvm::SmallVectorTemplateCommon.1738" }
%"class.llvm::SmallVectorTemplateCommon.1738" = type { %"class.llvm::SmallVectorBase" }
%"struct.llvm::SmallVectorStorage.1739" = type { [112 x i8] }
%"class.llvm::SmallVector.1740" = type { %"class.llvm::SmallVectorImpl.1741", %"struct.llvm::SmallVectorStorage.1744" }
%"class.llvm::SmallVectorImpl.1741" = type { %"class.llvm::SmallVectorTemplateBase.1742" }
%"class.llvm::SmallVectorTemplateBase.1742" = type { %"class.llvm::SmallVectorTemplateCommon.1743" }
%"class.llvm::SmallVectorTemplateCommon.1743" = type { %"class.llvm::SmallVectorBase" }
%"struct.llvm::SmallVectorStorage.1744" = type { [256 x i8] }
%"class.std::map.1745" = type { %"class.std::_Rb_tree.1746" }
%"class.std::_Rb_tree.1746" = type { %"struct.std::_Rb_tree<clang::Module *, std::pair<clang::Module *const, clang::Preprocessor::SubmoduleState>, std::_Select1st<std::pair<clang::Module *const, clang::Preprocessor::SubmoduleState>>, std::less<clang::Module *>>::_Rb_tree_impl" }
%"struct.std::_Rb_tree<clang::Module *, std::pair<clang::Module *const, clang::Preprocessor::SubmoduleState>, std::_Select1st<std::pair<clang::Module *const, clang::Preprocessor::SubmoduleState>>, std::less<clang::Module *>>::_Rb_tree_impl" = type { [8 x i8], %"struct.std::_Rb_tree_header" }
%"struct.clang::Preprocessor::SubmoduleState" = type { %"class.llvm::DenseMap.1751", %"class.clang::VisibleModuleSet" }
%"class.llvm::DenseMap.1751" = type <{ ptr, i32, i32, i32, [4 x i8] }>
%"class.llvm::DenseSet.1754" = type { %"class.llvm::detail::DenseSetImpl.1755" }
%"class.llvm::detail::DenseSetImpl.1755" = type { %"class.llvm::DenseMap.1756" }
%"class.llvm::DenseMap.1756" = type <{ ptr, i32, i32, i32, [4 x i8] }>
%"class.llvm::SmallSetVector.1759" = type { %"class.llvm::SetVector.1760" }
%"class.llvm::SetVector.1760" = type { %"class.llvm::DenseSet.1164", %"class.llvm::SmallVector.1612" }
%"class.llvm::SmallVector.1612" = type { %"class.llvm::SmallVectorImpl.1160", %"struct.llvm::SmallVectorStorage.1613" }
%"struct.llvm::SmallVectorStorage.1613" = type { [16 x i8] }
%"class.llvm::FoldingSet.1761" = type { %"class.llvm::FoldingSetImpl.1762" }
%"class.llvm::FoldingSetImpl.1762" = type { %"class.llvm::FoldingSetBase" }
%"class.llvm::SmallVector.1763" = type { %"class.llvm::SmallVectorImpl.1764", %"struct.llvm::SmallVectorStorage.1767" }
%"class.llvm::SmallVectorImpl.1764" = type { %"class.llvm::SmallVectorTemplateBase.1765" }
%"class.llvm::SmallVectorTemplateBase.1765" = type { %"class.llvm::SmallVectorTemplateCommon.1766" }
%"class.llvm::SmallVectorTemplateCommon.1766" = type { %"class.llvm::SmallVectorBase" }
%"struct.llvm::SmallVectorStorage.1767" = type { [256 x i8] }
%"class.llvm::DenseMap.1768" = type <{ ptr, i32, i32, i32, [4 x i8] }>
%"class.llvm::SmallDenseSet" = type { %"class.llvm::detail::DenseSetImpl.1771" }
%"class.llvm::detail::DenseSetImpl.1771" = type { %"class.llvm::SmallDenseMap" }
%"class.llvm::SmallDenseMap" = type { i32, i32, %"struct.llvm::AlignedCharArrayUnion.1773" }
%"struct.llvm::AlignedCharArrayUnion.1773" = type { [128 x i8] }
%"class.llvm::DenseMap.1774" = type <{ ptr, i32, i32, i32, [4 x i8] }>
%"class.llvm::DenseMap.1777" = type <{ ptr, i32, i32, i32, [4 x i8] }>
%"class.llvm::SmallVector.1780" = type { %"class.llvm::SmallVectorImpl.1781", %"struct.llvm::SmallVectorStorage.1784" }
%"class.llvm::SmallVectorImpl.1781" = type { %"class.llvm::SmallVectorTemplateBase.1782" }
%"class.llvm::SmallVectorTemplateBase.1782" = type { %"class.llvm::SmallVectorTemplateCommon.1783" }
%"class.llvm::SmallVectorTemplateCommon.1783" = type { %"class.llvm::SmallVectorBase" }
%"struct.llvm::SmallVectorStorage.1784" = type { [384 x i8] }
%"class.std::vector.1785" = type { %"struct.std::_Vector_base.1786" }
%"struct.std::_Vector_base.1786" = type { %"struct.std::_Vector_base<std::pair<clang::TokenLexer *, unsigned long>, std::allocator<std::pair<clang::TokenLexer *, unsigned long>>>::_Vector_impl" }
%"struct.std::_Vector_base<std::pair<clang::TokenLexer *, unsigned long>, std::allocator<std::pair<clang::TokenLexer *, unsigned long>>>::_Vector_impl" = type { %"struct.std::_Vector_base<std::pair<clang::TokenLexer *, unsigned long>, std::allocator<std::pair<clang::TokenLexer *, unsigned long>>>::_Vector_impl_data" }
%"struct.std::_Vector_base<std::pair<clang::TokenLexer *, unsigned long>, std::allocator<std::pair<clang::TokenLexer *, unsigned long>>>::_Vector_impl_data" = type { ptr, ptr, ptr }
%"class.llvm::SmallVector.1790" = type { %"class.llvm::SmallVectorImpl.1781", %"struct.llvm::SmallVectorStorage.1791" }
%"struct.llvm::SmallVectorStorage.1791" = type { [24 x i8] }
%"class.std::vector.1792" = type { %"struct.std::_Vector_base.1793" }
%"struct.std::_Vector_base.1793" = type { %"struct.std::_Vector_base<unsigned long, std::allocator<unsigned long>>::_Vector_impl" }
%"struct.std::_Vector_base<unsigned long, std::allocator<unsigned long>>::_Vector_impl" = type { %"struct.std::_Vector_base<unsigned long, std::allocator<unsigned long>>::_Vector_impl_data" }
%"struct.std::_Vector_base<unsigned long, std::allocator<unsigned long>>::_Vector_impl_data" = type { ptr, ptr, ptr }
%"class.std::vector.1794" = type { %"struct.std::_Vector_base.1795" }
%"struct.std::_Vector_base.1795" = type { %"struct.std::_Vector_base<std::pair<llvm::SmallVector<clang::Token, 1>, unsigned long>, std::allocator<std::pair<llvm::SmallVector<clang::Token, 1>, unsigned long>>>::_Vector_impl" }
%"struct.std::_Vector_base<std::pair<llvm::SmallVector<clang::Token, 1>, unsigned long>, std::allocator<std::pair<llvm::SmallVector<clang::Token, 1>, unsigned long>>>::_Vector_impl" = type { %"struct.std::_Vector_base<std::pair<llvm::SmallVector<clang::Token, 1>, unsigned long>, std::allocator<std::pair<llvm::SmallVector<clang::Token, 1>, unsigned long>>>::_Vector_impl_data" }
%"struct.std::_Vector_base<std::pair<llvm::SmallVector<clang::Token, 1>, unsigned long>, std::allocator<std::pair<llvm::SmallVector<clang::Token, 1>, unsigned long>>>::_Vector_impl_data" = type { ptr, ptr, ptr }
%"class.llvm::DenseMap.1799" = type <{ ptr, i32, i32, i32, [4 x i8] }>
%"class.llvm::SmallVector.1802" = type { %"class.llvm::SmallVectorImpl.1803", %"struct.llvm::SmallVectorStorage.1806" }
%"class.llvm::SmallVectorImpl.1803" = type { %"class.llvm::SmallVectorTemplateBase.1804" }
%"class.llvm::SmallVectorTemplateBase.1804" = type { %"class.llvm::SmallVectorTemplateCommon.1805" }
%"class.llvm::SmallVectorTemplateCommon.1805" = type { %"class.llvm::SmallVectorBase" }
%"struct.llvm::SmallVectorStorage.1806" = type { [128 x i8] }
%struct.anon.1807 = type { %"class.llvm::DenseMap.1808" }
%"class.llvm::DenseMap.1808" = type <{ ptr, i32, i32, i32, [4 x i8] }>

; Function Attrs: mustprogress nounwind uwtable
define linkonce_odr hidden noundef nonnull align 8 dereferenceable(696) ptr @_ZNK5clang12Preprocessor16getSourceManagerEv(ptr noundef nonnull align 8 dereferenceable(3288) %0) #0 comdat align 2 {
  %2 = alloca ptr, align 8
  store ptr %0, ptr %2, align 8
  %3 = load ptr, ptr %2, align 8
  %4 = getelementptr inbounds nuw %"class.clang::Preprocessor", ptr %3, i32 0, i32 7
  %5 = load ptr, ptr %4, align 8
  ret ptr %5
}

; Function Attrs: mustprogress nounwind uwtable
define internal void @_ZN12_GLOBAL__N_132FilterAndStoreDiagnosticConsumer15BeginSourceFileERKN5clang11LangOptionsEPKNS1_12PreprocessorE(ptr noundef nonnull align 8 dereferenceable(56) %0, ptr noundef nonnull align 8 dereferenceable(841) %1, ptr noundef %2) unnamed_addr #0 align 2 {
  %4 = alloca ptr, align 8
  %5 = alloca ptr, align 8
  %6 = alloca ptr, align 8
  store ptr %0, ptr %4, align 8
  store ptr %1, ptr %5, align 8
  store ptr %2, ptr %6, align 8
  %7 = load ptr, ptr %4, align 8
  %8 = load ptr, ptr %5, align 8
  %9 = getelementptr inbounds nuw %"class.(anonymous namespace)::FilterAndStoreDiagnosticConsumer", ptr %7, i32 0, i32 4
  store ptr %8, ptr %9, align 8
  %10 = load ptr, ptr %6, align 8
  %11 = icmp ne ptr %10, null
  br i1 %11, label %12, label %16

12:                                               ; preds = %3
  %13 = load ptr, ptr %6, align 8
  %14 = call noundef nonnull align 8 dereferenceable(696) ptr @_ZNK5clang12Preprocessor16getSourceManagerEv(ptr noundef nonnull align 8 dereferenceable(3288) %13)
  %15 = getelementptr inbounds nuw %"class.(anonymous namespace)::FilterAndStoreDiagnosticConsumer", ptr %7, i32 0, i32 5
  store ptr %14, ptr %15, align 8
  br label %16

16:                                               ; preds = %12, %3
  ret void
}