; Function Attrs: mustprogress nofree norecurse nosync nounwind willreturn memory(argmem: readwrite) uwtable
define internal void @_ZN12_GLOBAL__N_132FilterAndStoreDiagnosticConsumer15BeginSourceFileERKN5clang11LangOptionsEPKNS1_12PreprocessorE(ptr noundef nonnull writeonly align 8 captures(none) dereferenceable(56) initializes((40, 48)) %0, ptr noundef nonnull align 8 dereferenceable(841) %1, ptr noundef readonly %2) unnamed_addr #16 align 2 {
  %4 = getelementptr inbounds nuw i8, ptr %0, i64 40
  store ptr %1, ptr %4, align 8
  %.not = icmp eq ptr %2, null
  br i1 %.not, label %9, label %5

5:                                                ; preds = %3
  %6 = getelementptr inbounds nuw i8, ptr %2, i64 88
  %7 = load ptr, ptr %6, align 8
  %8 = getelementptr inbounds nuw i8, ptr %0, i64 48
  store ptr %7, ptr %8, align 8
  br label %9

9:                                                ; preds = %5, %3
  ret void
}